; ModuleID = 'source-C-CXX/42/413.cpp'
source_filename = "source-C-CXX/42/413.cpp"
target datalayout = "e-m:e-p270:32:32-p271:32:32-p272:64:64-i64:64-f80:128-n8:16:32:64-S128"
target triple = "x86_64-pc-linux-gnu"

%"class.std::ios_base::Init" = type { i8 }
%"class.std::basic_istream" = type { i32 (...)**, i64, %"class.std::basic_ios" }
%"class.std::basic_ios" = type { %"class.std::ios_base", %"class.std::basic_ostream"*, i8, i8, %"class.std::basic_streambuf"*, %"class.std::ctype"*, %"class.std::num_put"*, %"class.std::num_get"* }
%"class.std::ios_base" = type { i32 (...)**, i64, i64, i32, i32, i32, %"struct.std::ios_base::_Callback_list"*, %"struct.std::ios_base::_Words", [8 x %"struct.std::ios_base::_Words"], i32, %"struct.std::ios_base::_Words"*, %"class.std::locale" }
%"struct.std::ios_base::_Callback_list" = type { %"struct.std::ios_base::_Callback_list"*, void (i32, %"class.std::ios_base"*, i32)*, i32, i32 }
%"struct.std::ios_base::_Words" = type { i8*, i64 }
%"class.std::locale" = type { %"class.std::locale::_Impl"* }
%"class.std::locale::_Impl" = type { i32, %"class.std::locale::facet"**, i64, %"class.std::locale::facet"**, i8** }
%"class.std::locale::facet" = type <{ i32 (...)**, i32, [4 x i8] }>
%"class.std::basic_ostream" = type { i32 (...)**, %"class.std::basic_ios" }
%"class.std::basic_streambuf" = type { i32 (...)**, i8*, i8*, i8*, i8*, i8*, i8*, %"class.std::locale" }
%"class.std::ctype" = type <{ %"class.std::locale::facet.base", [4 x i8], %struct.__locale_struct*, i8, [7 x i8], i32*, i32*, i16*, i8, [256 x i8], [256 x i8], i8, [6 x i8] }>
%"class.std::locale::facet.base" = type <{ i32 (...)**, i32 }>
%struct.__locale_struct = type { [13 x %struct.__locale_data*], i16*, i32*, i32*, [13 x i8*] }
%struct.__locale_data = type opaque
%"class.std::num_put" = type { %"class.std::locale::facet.base", [4 x i8] }
%"class.std::num_get" = type { %"class.std::locale::facet.base", [4 x i8] }

@_ZStL8__ioinit = internal global %"class.std::ios_base::Init" zeroinitializer, align 1
@__dso_handle = external hidden global i8
@_ZSt3cin = external global %"class.std::basic_istream", align 8
@_ZSt4cout = external global %"class.std::basic_ostream", align 8
@.str = private unnamed_addr constant [2 x i8] c" \00", align 1
@llvm.global_ctors = appending global [1 x { i32, void ()*, i8* }] [{ i32, void ()*, i8* } { i32 65535, void ()* @_GLOBAL__sub_I_413.cpp, i8* null }]

declare void @_ZNSt8ios_base4InitC1Ev(%"class.std::ios_base::Init"* nonnull align 1 dereferenceable(1)) unnamed_addr #0

; Function Attrs: nounwind
declare void @_ZNSt8ios_base4InitD1Ev(%"class.std::ios_base::Init"* nonnull align 1 dereferenceable(1)) unnamed_addr #1

; Function Attrs: nofree nounwind
declare i32 @__cxa_atexit(void (i8*)*, i8*, i8*) local_unnamed_addr #2

; Function Attrs: mustprogress norecurse sspstrong uwtable
define dso_local i32 @main() local_unnamed_addr #3 {
  %1 = alloca i32, align 4
  %2 = bitcast i32* %1 to i8*
  call void @llvm.lifetime.start.p0i8(i64 4, i8* nonnull %2) #7
  %3 = call nonnull align 8 dereferenceable(16) %"class.std::basic_istream"* @_ZNSirsERi(%"class.std::basic_istream"* nonnull align 8 dereferenceable(16) @_ZSt3cin, i32* nonnull align 4 dereferenceable(4) %1)
  %4 = load i32, i32* %1, align 4, !tbaa !5
  %5 = icmp slt i32 %4, 6
  br i1 %5, label %123, label %6

6:                                                ; preds = %0, %117
  %7 = phi i32 [ %122, %117 ], [ 0, %0 ]
  %8 = phi i32 [ %118, %117 ], [ %4, %0 ]
  %9 = phi i32 [ %119, %117 ], [ 3, %0 ]
  %10 = add i32 %7, 1
  %11 = and i32 %10, 1
  %12 = icmp eq i32 %7, 0
  br i1 %12, label %31, label %13

13:                                               ; preds = %6
  %14 = and i32 %10, -2
  br label %15

15:                                               ; preds = %15, %13
  %16 = phi i32 [ 0, %13 ], [ %27, %15 ]
  %17 = phi i32 [ 2, %13 ], [ %28, %15 ]
  %18 = phi i32 [ %14, %13 ], [ %29, %15 ]
  %19 = urem i32 %9, %17
  %20 = icmp eq i32 %19, 0
  %21 = zext i1 %20 to i32
  %22 = add nuw nsw i32 %16, %21
  %23 = or i32 %17, 1
  %24 = urem i32 %9, %23
  %25 = icmp eq i32 %24, 0
  %26 = zext i1 %25 to i32
  %27 = add nuw nsw i32 %22, %26
  %28 = add nuw nsw i32 %17, 2
  %29 = add i32 %18, -2
  %30 = icmp eq i32 %29, 0
  br i1 %30, label %31, label %15, !llvm.loop !9

31:                                               ; preds = %15, %6
  %32 = phi i32 [ undef, %6 ], [ %27, %15 ]
  %33 = phi i32 [ 0, %6 ], [ %27, %15 ]
  %34 = phi i32 [ 2, %6 ], [ %28, %15 ]
  %35 = icmp eq i32 %11, 0
  br i1 %35, label %41, label %36

36:                                               ; preds = %31
  %37 = urem i32 %9, %34
  %38 = icmp eq i32 %37, 0
  %39 = zext i1 %38 to i32
  %40 = add nuw nsw i32 %33, %39
  br label %41

41:                                               ; preds = %31, %36
  %42 = phi i32 [ %32, %31 ], [ %40, %36 ]
  %43 = icmp eq i32 %42, 0
  br i1 %43, label %44, label %117

44:                                               ; preds = %41
  %45 = sub nsw i32 %8, %9
  %46 = icmp sgt i32 %45, 5
  br i1 %46, label %47, label %83

47:                                               ; preds = %44
  %48 = lshr i32 %45, 1
  %49 = icmp eq i32 %48, 3
  br i1 %49, label %69, label %50

50:                                               ; preds = %47
  %51 = add nsw i32 %48, -2
  %52 = and i32 %51, -2
  br label %53

53:                                               ; preds = %53, %50
  %54 = phi i32 [ 0, %50 ], [ %65, %53 ]
  %55 = phi i32 [ 2, %50 ], [ %66, %53 ]
  %56 = phi i32 [ %52, %50 ], [ %67, %53 ]
  %57 = srem i32 %45, %55
  %58 = icmp eq i32 %57, 0
  %59 = zext i1 %58 to i32
  %60 = add nuw nsw i32 %54, %59
  %61 = or i32 %55, 1
  %62 = srem i32 %45, %61
  %63 = icmp eq i32 %62, 0
  %64 = zext i1 %63 to i32
  %65 = add nuw nsw i32 %60, %64
  %66 = add nuw nsw i32 %55, 2
  %67 = add i32 %56, -2
  %68 = icmp eq i32 %67, 0
  br i1 %68, label %69, label %53, !llvm.loop !11

69:                                               ; preds = %53, %47
  %70 = phi i32 [ undef, %47 ], [ %65, %53 ]
  %71 = phi i32 [ 0, %47 ], [ %65, %53 ]
  %72 = phi i32 [ 2, %47 ], [ %66, %53 ]
  %73 = and i32 %45, 2
  %74 = icmp eq i32 %73, 0
  br i1 %74, label %80, label %75

75:                                               ; preds = %69
  %76 = srem i32 %45, %72
  %77 = icmp eq i32 %76, 0
  %78 = zext i1 %77 to i32
  %79 = add nuw nsw i32 %71, %78
  br label %80

80:                                               ; preds = %69, %75
  %81 = phi i32 [ %70, %69 ], [ %79, %75 ]
  %82 = icmp eq i32 %81, 0
  br i1 %82, label %83, label %117

83:                                               ; preds = %44, %80
  %84 = call nonnull align 8 dereferenceable(8) %"class.std::basic_ostream"* @_ZNSolsEi(%"class.std::basic_ostream"* nonnull align 8 dereferenceable(8) @_ZSt4cout, i32 %9)
  %85 = call nonnull align 8 dereferenceable(8) %"class.std::basic_ostream"* @_ZSt16__ostream_insertIcSt11char_traitsIcEERSt13basic_ostreamIT_T0_ES6_PKS3_l(%"class.std::basic_ostream"* nonnull align 8 dereferenceable(8) %84, i8* nonnull getelementptr inbounds ([2 x i8], [2 x i8]* @.str, i64 0, i64 0), i64 1)
  %86 = call nonnull align 8 dereferenceable(8) %"class.std::basic_ostream"* @_ZNSolsEi(%"class.std::basic_ostream"* nonnull align 8 dereferenceable(8) %84, i32 %45)
  %87 = bitcast %"class.std::basic_ostream"* %86 to i8**
  %88 = load i8*, i8** %87, align 8, !tbaa !12
  %89 = getelementptr i8, i8* %88, i64 -24
  %90 = bitcast i8* %89 to i64*
  %91 = load i64, i64* %90, align 8
  %92 = bitcast %"class.std::basic_ostream"* %86 to i8*
  %93 = add nsw i64 %91, 240
  %94 = getelementptr inbounds i8, i8* %92, i64 %93
  %95 = bitcast i8* %94 to %"class.std::ctype"**
  %96 = load %"class.std::ctype"*, %"class.std::ctype"** %95, align 8, !tbaa !14
  %97 = icmp eq %"class.std::ctype"* %96, null
  br i1 %97, label %98, label %99

98:                                               ; preds = %83
  call void @_ZSt16__throw_bad_castv() #8
  unreachable

99:                                               ; preds = %83
  %100 = getelementptr inbounds %"class.std::ctype", %"class.std::ctype"* %96, i64 0, i32 8
  %101 = load i8, i8* %100, align 8, !tbaa !18
  %102 = icmp eq i8 %101, 0
  br i1 %102, label %106, label %103

103:                                              ; preds = %99
  %104 = getelementptr inbounds %"class.std::ctype", %"class.std::ctype"* %96, i64 0, i32 9, i64 10
  %105 = load i8, i8* %104, align 1, !tbaa !20
  br label %112

106:                                              ; preds = %99
  call void @_ZNKSt5ctypeIcE13_M_widen_initEv(%"class.std::ctype"* nonnull align 8 dereferenceable(570) %96)
  %107 = bitcast %"class.std::ctype"* %96 to i8 (%"class.std::ctype"*, i8)***
  %108 = load i8 (%"class.std::ctype"*, i8)**, i8 (%"class.std::ctype"*, i8)*** %107, align 8, !tbaa !12
  %109 = getelementptr inbounds i8 (%"class.std::ctype"*, i8)*, i8 (%"class.std::ctype"*, i8)** %108, i64 6
  %110 = load i8 (%"class.std::ctype"*, i8)*, i8 (%"class.std::ctype"*, i8)** %109, align 8
  %111 = call signext i8 %110(%"class.std::ctype"* nonnull align 8 dereferenceable(570) %96, i8 signext 10)
  br label %112

112:                                              ; preds = %103, %106
  %113 = phi i8 [ %105, %103 ], [ %111, %106 ]
  %114 = call nonnull align 8 dereferenceable(8) %"class.std::basic_ostream"* @_ZNSo3putEc(%"class.std::basic_ostream"* nonnull align 8 dereferenceable(8) %86, i8 signext %113)
  %115 = call nonnull align 8 dereferenceable(8) %"class.std::basic_ostream"* @_ZNSo5flushEv(%"class.std::basic_ostream"* nonnull align 8 dereferenceable(8) %114)
  %116 = load i32, i32* %1, align 4, !tbaa !5
  br label %117

117:                                              ; preds = %80, %112, %41
  %118 = phi i32 [ %8, %80 ], [ %116, %112 ], [ %8, %41 ]
  %119 = add nuw nsw i32 %9, 1
  %120 = sdiv i32 %118, 2
  %121 = icmp slt i32 %9, %120
  %122 = add i32 %7, 1
  br i1 %121, label %6, label %123, !llvm.loop !21

123:                                              ; preds = %117, %0
  call void @llvm.lifetime.end.p0i8(i64 4, i8* nonnull %2) #7
  ret i32 0
}

; Function Attrs: argmemonly mustprogress nofree nosync nounwind willreturn
declare void @llvm.lifetime.start.p0i8(i64 immarg, i8* nocapture) #4

declare nonnull align 8 dereferenceable(16) %"class.std::basic_istream"* @_ZNSirsERi(%"class.std::basic_istream"* nonnull align 8 dereferenceable(16), i32* nonnull align 4 dereferenceable(4)) local_unnamed_addr #0

declare nonnull align 8 dereferenceable(8) %"class.std::basic_ostream"* @_ZNSolsEi(%"class.std::basic_ostream"* nonnull align 8 dereferenceable(8), i32) local_unnamed_addr #0

; Function Attrs: argmemonly mustprogress nofree nosync nounwind willreturn
declare void @llvm.lifetime.end.p0i8(i64 immarg, i8* nocapture) #4

declare nonnull align 8 dereferenceable(8) %"class.std::basic_ostream"* @_ZSt16__ostream_insertIcSt11char_traitsIcEERSt13basic_ostreamIT_T0_ES6_PKS3_l(%"class.std::basic_ostream"* nonnull align 8 dereferenceable(8), i8*, i64) local_unnamed_addr #0

declare nonnull align 8 dereferenceable(8) %"class.std::basic_ostream"* @_ZNSo3putEc(%"class.std::basic_ostream"* nonnull align 8 dereferenceable(8), i8 signext) local_unnamed_addr #0

declare nonnull align 8 dereferenceable(8) %"class.std::basic_ostream"* @_ZNSo5flushEv(%"class.std::basic_ostream"* nonnull align 8 dereferenceable(8)) local_unnamed_addr #0

; Function Attrs: noreturn
declare void @_ZSt16__throw_bad_castv() local_unnamed_addr #5

declare void @_ZNKSt5ctypeIcE13_M_widen_initEv(%"class.std::ctype"* nonnull align 8 dereferenceable(570)) local_unnamed_addr #0

; Function Attrs: sspstrong uwtable
define internal void @_GLOBAL__sub_I_413.cpp() #6 section ".text.startup" {
  tail call void @_ZNSt8ios_base4InitC1Ev(%"class.std::ios_base::Init"* nonnull align 1 dereferenceable(1) @_ZStL8__ioinit)
  %1 = tail call i32 @__cxa_atexit(void (i8*)* bitcast (void (%"class.std::ios_base::Init"*)* @_ZNSt8ios_base4InitD1Ev to void (i8*)*), i8* getelementptr inbounds (%"class.std::ios_base::Init", %"class.std::ios_base::Init"* @_ZStL8__ioinit, i64 0, i32 0), i8* nonnull @__dso_handle) #7
  ret void
}


!llvm.module.flags = !{!0, !1, !2, !3}
!llvm.ident = !{!4}

!0 = !{i32 1, !"wchar_size", i32 4}
!1 = !{i32 7, !"PIC Level", i32 2}
!2 = !{i32 7, !"PIE Level", i32 2}
!3 = !{i32 7, !"uwtable", i32 1}
!4 = !{!"clang version 13.0.0"}
!5 = !{!6, !6, i64 0}
!6 = !{!"int", !7, i64 0}
!7 = !{!"omnipotent char", !8, i64 0}
!8 = !{!"Simple C++ TBAA"}
!9 = distinct !{!9, !10}
!10 = !{!"llvm.loop.mustprogress"}
!11 = distinct !{!11, !10}
!12 = !{!13, !13, i64 0}
!13 = !{!"vtable pointer", !8, i64 0}
!14 = !{!15, !16, i64 240}
!15 = !{!"_ZTSSt9basic_iosIcSt11char_traitsIcEE", !16, i64 216, !7, i64 224, !17, i64 225, !16, i64 232, !16, i64 240, !16, i64 248, !16, i64 256}
!16 = !{!"any pointer", !7, i64 0}
!17 = !{!"bool", !7, i64 0}
!18 = !{!19, !7, i64 56}
!19 = !{!"_ZTSSt5ctypeIcE", !16, i64 16, !17, i64 24, !16, i64 32, !16, i64 40, !16, i64 48, !7, i64 56, !7, i64 57, !7, i64 313, !7, i64 569}
!20 = !{!7, !7, i64 0}
!21 = distinct !{!21, !10}
